target datalayout = "e-m:e-p270:32:32-p271:32:32-p272:64:64-i64:64-i128:128-f80:128-n8:16:32:64-S128"
target triple = "x86_64-pc-linux-gnu"

%struct.SDL_AudioStream = type { ptr, i32, ptr, ptr, ptr, ptr, %struct.SDL_AudioSpec, %struct.SDL_AudioSpec, ptr, ptr, float, float, ptr, %struct.SDL_AudioSpec, ptr, [8 x i32], i64, ptr, i64, i8, ptr, ptr, ptr, ptr, ptr }
%struct.SDL_AudioSpec = type { i32, i32, i32 }

@.str.2 = private unnamed_addr constant [28 x i8] c"Stream has no source format\00", align 1
@.str.3 = private unnamed_addr constant [33 x i8] c"Stream has no destination format\00", align 1
@.str.23 = private unnamed_addr constant [32 x i8] c"Can't add partial sample frames\00", align 1

; Function Attrs: nounwind uwtable
define internal zeroext i1 @CheckAudioStreamIsFullySetup(ptr noundef %0) #0 {
  %2 = alloca i1, align 1
  %3 = alloca ptr, align 8
  store ptr %0, ptr %3, align 8
  %4 = load ptr, ptr %3, align 8
  %5 = getelementptr inbounds nuw %struct.SDL_AudioStream, ptr %4, i32 0, i32 6
  %6 = getelementptr inbounds nuw %struct.SDL_AudioSpec, ptr %5, i32 0, i32 0
  %7 = load i32, ptr %6, align 8
  %8 = icmp eq i32 %7, 0
  br i1 %8, label %9, label %11

9:                                                ; preds = %1
  %10 = call zeroext i1 (ptr, ...) @SDL_SetError_REAL(ptr noundef @.str.2)
  store i1 %10, ptr %2, align 1
  br label %21

11:                                               ; preds = %1
  %12 = load ptr, ptr %3, align 8
  %13 = getelementptr inbounds nuw %struct.SDL_AudioStream, ptr %12, i32 0, i32 7
  %14 = getelementptr inbounds nuw %struct.SDL_AudioSpec, ptr %13, i32 0, i32 0
  %15 = load i32, ptr %14, align 4
  %16 = icmp eq i32 %15, 0
  br i1 %16, label %17, label %19

17:                                               ; preds = %11
  %18 = call zeroext i1 (ptr, ...) @SDL_SetError_REAL(ptr noundef @.str.3)
  store i1 %18, ptr %2, align 1
  br label %21

19:                                               ; preds = %11
  br label %20

20:                                               ; preds = %19
  store i1 true, ptr %2, align 1
  br label %21

21:                                               ; preds = %20, %17, %9
  %22 = load i1, ptr %2, align 1
  ret i1 %22
}

; Function Attrs: nounwind uwtable
define internal zeroext i1 @PutAudioStreamBuffer(ptr noundef %0, ptr noundef %1, i32 noundef %2, ptr noundef %3, ptr noundef %4) #0 {
  %6 = alloca i1, align 1
  %7 = alloca ptr, align 8
  %8 = alloca ptr, align 8
  %9 = alloca i32, align 4
  %10 = alloca ptr, align 8
  %11 = alloca ptr, align 8
  %12 = alloca i8, align 1
  store ptr %0, ptr %7, align 8
  store ptr %1, ptr %8, align 8
  store i32 %2, ptr %9, align 4
  store ptr %3, ptr %10, align 8
  store ptr %4, ptr %11, align 8
  %13 = load ptr, ptr %7, align 8
  %14 = getelementptr inbounds nuw %struct.SDL_AudioStream, ptr %13, i32 0, i32 0
  %15 = load ptr, ptr %14, align 8
  call void @SDL_LockMutex_REAL(ptr noundef %15)
  %16 = load ptr, ptr %7, align 8
  %17 = call zeroext i1 @CheckAudioStreamIsFullySetup(ptr noundef %16)
  br i1 %17, label %22, label %18

18:                                               ; preds = %5
  %19 = load ptr, ptr %7, align 8
  %20 = getelementptr inbounds nuw %struct.SDL_AudioStream, ptr %19, i32 0, i32 0
  %21 = load ptr, ptr %20, align 8
  call void @SDL_UnlockMutex_REAL(ptr noundef %21)
  store i1 false, ptr %6, align 1
  br label %60

22:                                               ; preds = %5
  %23 = load i32, ptr %9, align 4
  %24 = load ptr, ptr %7, align 8
  %25 = getelementptr inbounds nuw %struct.SDL_AudioStream, ptr %24, i32 0, i32 6
  %26 = getelementptr inbounds nuw %struct.SDL_AudioSpec, ptr %25, i32 0, i32 0
  %27 = load i32, ptr %26, align 8
  %28 = and i32 %27, 255
  %29 = udiv i32 %28, 8
  %30 = load ptr, ptr %7, align 8
  %31 = getelementptr inbounds nuw %struct.SDL_AudioStream, ptr %30, i32 0, i32 6
  %32 = getelementptr inbounds nuw %struct.SDL_AudioSpec, ptr %31, i32 0, i32 1
  %33 = load i32, ptr %32, align 4
  %34 = mul i32 %29, %33
  %35 = urem i32 %23, %34
  %36 = icmp ne i32 %35, 0
  br i1 %36, label %37, label %42

37:                                               ; preds = %22
  %38 = load ptr, ptr %7, align 8
  %39 = getelementptr inbounds nuw %struct.SDL_AudioStream, ptr %38, i32 0, i32 0
  %40 = load ptr, ptr %39, align 8
  call void @SDL_UnlockMutex_REAL(ptr noundef %40)
  %41 = call zeroext i1 (ptr, ...) @SDL_SetError_REAL(ptr noundef @.str.23)
  store i1 %41, ptr %6, align 1
  br label %60

42:                                               ; preds = %22
  call void @llvm.lifetime.start.p0(i64 1, ptr %12) #7
  %43 = load ptr, ptr %7, align 8
  %44 = load ptr, ptr %7, align 8
  %45 = getelementptr inbounds nuw %struct.SDL_AudioStream, ptr %44, i32 0, i32 6
  %46 = load ptr, ptr %7, align 8
  %47 = getelementptr inbounds nuw %struct.SDL_AudioStream, ptr %46, i32 0, i32 8
  %48 = load ptr, ptr %47, align 8
  %49 = load ptr, ptr %8, align 8
  %50 = load i32, ptr %9, align 4
  %51 = load ptr, ptr %10, align 8
  %52 = load ptr, ptr %11, align 8
  %53 = call zeroext i1 @PutAudioStreamBufferInternal(ptr noundef %43, ptr noundef %45, ptr noundef %48, ptr noundef %49, i32 noundef %50, ptr noundef %51, ptr noundef %52)
  %54 = zext i1 %53 to i8
  store i8 %54, ptr %12, align 1
  %55 = load ptr, ptr %7, align 8
  %56 = getelementptr inbounds nuw %struct.SDL_AudioStream, ptr %55, i32 0, i32 0
  %57 = load ptr, ptr %56, align 8
  call void @SDL_UnlockMutex_REAL(ptr noundef %57)
  %58 = load i8, ptr %12, align 1, !range !6, !noundef !7
  %59 = trunc i8 %58 to i1
  store i1 %59, ptr %6, align 1
  call void @llvm.lifetime.end.p0(i64 1, ptr %12) #7
  br label %60

60:                                               ; preds = %42, %37, %18
  %61 = load i1, ptr %6, align 1
  ret i1 %61
}