; Function Attrs: nounwind uwtable
define internal fastcc zeroext i1 @PutAudioStreamBuffer(ptr noundef nonnull %0, ptr noundef nonnull %1, i32 noundef range(i32 0, -2147483648) %2, ptr noundef %3) unnamed_addr #2 {
  %5 = load ptr, ptr %0, align 8
  tail call void @SDL_LockMutex_REAL(ptr noundef %5) #11
  %6 = getelementptr inbounds nuw i8, ptr %0, i64 48
  %7 = load i32, ptr %6, align 8
  %8 = icmp eq i32 %7, 0
  br i1 %8, label %CheckAudioStreamIsFullySetup.exit, label %9

9:                                                ; preds = %4
  %10 = getelementptr inbounds nuw i8, ptr %0, i64 60
  %11 = load i32, ptr %10, align 4
  %12 = icmp eq i32 %11, 0
  br i1 %12, label %CheckAudioStreamIsFullySetup.exit, label %CheckAudioStreamIsFullySetup.exit.thread

CheckAudioStreamIsFullySetup.exit:                ; preds = %4, %9
  %.str.3.sink.i = phi ptr [ @.str.2, %4 ], [ @.str.3, %9 ]
  %13 = tail call zeroext i1 (ptr, ...) @SDL_SetError_REAL(ptr noundef nonnull %.str.3.sink.i) #11
  br i1 %13, label %CheckAudioStreamIsFullySetup.exit.CheckAudioStreamIsFullySetup.exit.thread_crit_edge, label %14

CheckAudioStreamIsFullySetup.exit.CheckAudioStreamIsFullySetup.exit.thread_crit_edge: ; preds = %CheckAudioStreamIsFullySetup.exit
  %.pre = load i32, ptr %6, align 8
  br label %CheckAudioStreamIsFullySetup.exit.thread

14:                                               ; preds = %CheckAudioStreamIsFullySetup.exit
  %15 = load ptr, ptr %0, align 8
  tail call void @SDL_UnlockMutex_REAL(ptr noundef %15) #11
  br label %31

CheckAudioStreamIsFullySetup.exit.thread:         ; preds = %CheckAudioStreamIsFullySetup.exit.CheckAudioStreamIsFullySetup.exit.thread_crit_edge, %9
  %16 = phi i32 [ %.pre, %CheckAudioStreamIsFullySetup.exit.CheckAudioStreamIsFullySetup.exit.thread_crit_edge ], [ %7, %9 ]
  %17 = lshr i32 %16, 3
  %18 = and i32 %17, 31
  %19 = getelementptr inbounds nuw i8, ptr %0, i64 52
  %20 = load i32, ptr %19, align 4
  %21 = mul i32 %18, %20
  %22 = urem i32 %2, %21
  %.not = icmp eq i32 %22, 0
  br i1 %.not, label %26, label %23

23:                                               ; preds = %CheckAudioStreamIsFullySetup.exit.thread
  %24 = load ptr, ptr %0, align 8
  tail call void @SDL_UnlockMutex_REAL(ptr noundef %24) #11
  %25 = tail call zeroext i1 (ptr, ...) @SDL_SetError_REAL(ptr noundef nonnull @.str.23) #11
  br label %31

26:                                               ; preds = %CheckAudioStreamIsFullySetup.exit.thread
  %27 = getelementptr inbounds nuw i8, ptr %0, i64 72
  %28 = load ptr, ptr %27, align 8
  %29 = tail call fastcc zeroext i1 @PutAudioStreamBufferInternal(ptr noundef %0, ptr noundef %6, ptr noundef %28, ptr noundef %1, i32 noundef %2, ptr noundef %3)
  %30 = load ptr, ptr %0, align 8
  tail call void @SDL_UnlockMutex_REAL(ptr noundef %30) #11
  br label %31

31:                                               ; preds = %26, %23, %14
  %.0 = phi i1 [ %25, %23 ], [ %29, %26 ], [ false, %14 ]
  ret i1 %.0
}